; Function Attrs: mustprogress uwtable
define void @_ZN3gmx15analysismodules10GyrateInfo6createEv(ptr dead_on_unwind noalias nocapture writable writeonly sret(%"class.std::unique_ptr") align 8 %0) local_unnamed_addr #0 align 2 personality ptr @__gxx_personality_v0 {
  %2 = tail call noalias noundef nonnull dereferenceable(88) ptr @_Znwm(i64 noundef 88) #17
  invoke void @_ZN3gmx24TrajectoryAnalysisModuleC2Ev(ptr noundef nonnull align 8 dereferenceable(16) %2)
          to label %.noexc unwind label %13

.noexc:                                           ; preds = %1
  store ptr getelementptr inbounds inrange(-16, 88) ({ [13 x ptr] }, ptr @_ZTVN3gmx15analysismodules12_GLOBAL__N_16GyrateE, i64 0, i32 0, i64 2), ptr %2, align 8
  %3 = getelementptr inbounds i8, ptr %2, i64 16
  tail call void @_ZNSt7__cxx1112basic_stringIcSt11char_traitsIcESaIcEEC1Ev(ptr noundef nonnull align 8 dereferenceable(32) %3) #18
  %4 = getelementptr inbounds i8, ptr %2, i64 48
  store ptr null, ptr %4, align 8
  %5 = getelementptr inbounds i8, ptr %2, i64 56
  invoke void @_ZN3gmx12AnalysisDataC1Ev(ptr noundef nonnull align 8 dereferenceable(24) %5)
          to label %6 unwind label %8

6:                                                ; preds = %.noexc
  %7 = getelementptr inbounds i8, ptr %2, i64 80
  store i64 0, ptr %7, align 8
  invoke void @_ZN3gmx24TrajectoryAnalysisModule23registerAnalysisDatasetEPNS_12AnalysisDataEPKc(ptr noundef nonnull align 8 dereferenceable(16) %2, ptr noundef nonnull %5, ptr noundef nonnull @_ZN3gmx15analysismodules10GyrateInfo4nameE)
          to label %_ZN3gmx15analysismodules12_GLOBAL__N_16GyrateC2Ev.exit unwind label %10

8:                                                ; preds = %.noexc
  %9 = landingpad { ptr, i32 }
          cleanup
  br label %12

10:                                               ; preds = %6
  %11 = landingpad { ptr, i32 }
          cleanup
  tail call void @_ZN3gmx12AnalysisDataD1Ev(ptr noundef nonnull align 8 dereferenceable(24) %5) #18
  br label %12

12:                                               ; preds = %10, %8
  %.pn.i = phi { ptr, i32 } [ %11, %10 ], [ %9, %8 ]
  tail call void @_ZNSt7__cxx1112basic_stringIcSt11char_traitsIcESaIcEED1Ev(ptr noundef nonnull align 8 dereferenceable(32) %3) #18
  tail call void @_ZN3gmx24TrajectoryAnalysisModuleD2Ev(ptr noundef nonnull align 8 dereferenceable(16) %2) #18
  br label %.body

_ZN3gmx15analysismodules12_GLOBAL__N_16GyrateC2Ev.exit: ; preds = %6
  store ptr %2, ptr %0, align 8
  ret void

13:                                               ; preds = %1
  %14 = landingpad { ptr, i32 }
          cleanup
  br label %.body

.body:                                            ; preds = %12, %13
  %eh.lpad-body = phi { ptr, i32 } [ %14, %13 ], [ %.pn.i, %12 ]
  tail call void @_ZdlPv(ptr noundef nonnull %2) #19
  resume { ptr, i32 } %eh.lpad-body
}